target datalayout = "e-m:e-p270:32:32-p271:32:32-p272:64:64-i64:64-i128:128-f80:128-n8:16:32:64-S128"
target triple = "x86_64-pc-linux-gnu"

%"class.gmx::CommandLineParser::Impl" = type <{ %"class.gmx::OptionsAssigner", i8, i8, [6 x i8] }>
%"class.gmx::OptionsAssigner" = type { %"class.std::unique_ptr" }
%"class.std::unique_ptr" = type { %"struct.std::__uniq_ptr_data" }
%"struct.std::__uniq_ptr_data" = type { %"class.std::__uniq_ptr_impl" }
%"class.std::__uniq_ptr_impl" = type { %"class.std::tuple" }
%"class.std::tuple" = type { %"struct.std::_Tuple_impl" }
%"struct.std::_Tuple_impl" = type { %"struct.std::_Head_base.1" }
%"struct.std::_Head_base.1" = type { ptr }

; Function Attrs: mustprogress uwtable
define void @_ZN3gmx17CommandLineParser4ImplC2EPNS_7OptionsE(ptr noundef nonnull align 8 dereferenceable(10) %0, ptr noundef %1) unnamed_addr #0 align 2 personality ptr @__gxx_personality_v0 {
  %3 = alloca ptr, align 8
  %4 = alloca ptr, align 8
  %5 = alloca ptr, align 8
  %6 = alloca i32, align 4
  store ptr %0, ptr %3, align 8
  store ptr %1, ptr %4, align 8
  %7 = load ptr, ptr %3, align 8
  %8 = getelementptr inbounds %"class.gmx::CommandLineParser::Impl", ptr %7, i32 0, i32 0
  %9 = load ptr, ptr %4, align 8
  call void @_ZN3gmx15OptionsAssignerC1EPNS_7OptionsE(ptr noundef nonnull align 8 dereferenceable(8) %8, ptr noundef %9)
  %10 = getelementptr inbounds %"class.gmx::CommandLineParser::Impl", ptr %7, i32 0, i32 1
  store i8 0, ptr %10, align 8
  %11 = getelementptr inbounds %"class.gmx::CommandLineParser::Impl", ptr %7, i32 0, i32 2
  store i8 0, ptr %11, align 1
  %12 = getelementptr inbounds %"class.gmx::CommandLineParser::Impl", ptr %7, i32 0, i32 0
  invoke void @_ZN3gmx15OptionsAssigner24setAcceptBooleanNoPrefixEb(ptr noundef nonnull align 8 dereferenceable(8) %12, i1 noundef zeroext true)
          to label %13 unwind label %14

13:                                               ; preds = %2
  ret void

14:                                               ; preds = %2
  %15 = landingpad { ptr, i32 }
          cleanup
  %16 = extractvalue { ptr, i32 } %15, 0
  store ptr %16, ptr %5, align 8
  %17 = extractvalue { ptr, i32 } %15, 1
  store i32 %17, ptr %6, align 4
  call void @_ZN3gmx15OptionsAssignerD1Ev(ptr noundef nonnull align 8 dereferenceable(8) %8) #11
  br label %18

18:                                               ; preds = %14
  %19 = load ptr, ptr %5, align 8
  %20 = load i32, ptr %6, align 4
  %21 = insertvalue { ptr, i32 } poison, ptr %19, 0
  %22 = insertvalue { ptr, i32 } %21, i32 %20, 1
  resume { ptr, i32 } %22
}