; Function Attrs: mustprogress uwtable
define void @_ZN3gmx17CommandLineParser4ImplC2EPNS_7OptionsE(ptr noundef nonnull align 8 dereferenceable(10) %0, ptr noundef %1) unnamed_addr #0 align 2 personality ptr @__gxx_personality_v0 {
  tail call void @_ZN3gmx15OptionsAssignerC1EPNS_7OptionsE(ptr noundef nonnull align 8 dereferenceable(8) %0, ptr noundef %1)
  %3 = getelementptr inbounds i8, ptr %0, i64 8
  store i8 0, ptr %3, align 8
  %4 = getelementptr inbounds i8, ptr %0, i64 9
  store i8 0, ptr %4, align 1
  invoke void @_ZN3gmx15OptionsAssigner24setAcceptBooleanNoPrefixEb(ptr noundef nonnull align 8 dereferenceable(8) %0, i1 noundef zeroext true)
          to label %5 unwind label %6

5:                                                ; preds = %2
  ret void

6:                                                ; preds = %2
  %7 = landingpad { ptr, i32 }
          cleanup
  tail call void @_ZN3gmx15OptionsAssignerD1Ev(ptr noundef nonnull align 8 dereferenceable(8) %0) #18
  resume { ptr, i32 } %7
}